; Function Attrs: mustprogress nofree norecurse nosync nounwind willreturn memory(argmem: readwrite) uwtable
define internal noundef ptr @lru_cache_copy(ptr noundef returned %0, ptr readnone captures(none) %1) #6 {
  %3 = load i32, ptr %0, align 8, !tbaa !21
  %4 = icmp slt i32 %3, 0
  br i1 %4, label %_Py_NewRef.exit, label %5

5:                                                ; preds = %2
  %6 = add nuw i32 %3, 1
  store i32 %6, ptr %0, align 8, !tbaa !21
  br label %_Py_NewRef.exit

_Py_NewRef.exit:                                  ; preds = %2, %5
  ret ptr %0
}